(dp0
S'\n'
p1
I0
sS'A'
p2
I1
sS'C'
p3
I3
sS'B'
p4
I2
sS'E'
p5
I4
sS'G'
p6
I6
sS'F'
p7
I5
sS'H'
p8
I7
sS'M'
p9
I9
sS'L'
p10
I8
sS'O'
p11
I11
sS'N'
p12
I10
sS'P'
p13
I12
sS'S'
p14
I13
sS'U'
p15
I15
sS'T'
p16
I14
sS'W'
p17
I16
sS'a'
p18
I17
sS'c'
p19
I19
sS'b'
p20
I18
sS'e'
p21
I21
sS'd'
p22
I20
sS'g'
p23
I23
sS'f'
p24
I22
sS'i'
p25
I25
sS'h'
p26
I24
sS'k'
p27
I27
sS'j'
p28
I26
sS'm'
p29
I29
sS'l'
p30
I28
sS'o'
p31
I31
sS'n'
p32
I30
sS'q'
p33
I33
sS'p'
p34
I32
sS's'
p35
I35
sS'r'
p36
I34
sS'u'
p37
I37
sS't'
p38
I36
sS'w'
p39
I39
sS'v'
p40
I38
sS'y'
p41
I41
sS'x'
p42
I40
s.